; Function Attrs: mustprogress noreturn nounwind uwtable
define void @_ZN4cvc58internal11FatalStreamD2Ev(ptr noundef nonnull readnone align 1 captures(none) dereferenceable(1) %0) unnamed_addr #5 align 2 personality ptr @__gxx_personality_v0 {
  invoke void @_ZN4cvc58internal11FatalStream5FlushEv(ptr nonnull align 1 poison)
          to label %2 unwind label %3

2:                                                ; preds = %1
  tail call void @abort() #23
  unreachable

3:                                                ; preds = %1
  %4 = landingpad { ptr, i32 }
          catch ptr null
  %5 = extractvalue { ptr, i32 } %4, 0
  tail call void @__clang_call_terminate(ptr %5) #23
  unreachable
}